; ModuleID = 'source-C-CXX/24/944.cpp'
source_filename = "source-C-CXX/24/944.cpp"
target datalayout = "e-m:e-p270:32:32-p271:32:32-p272:64:64-i64:64-f80:128-n8:16:32:64-S128"
target triple = "x86_64-pc-linux-gnu"

%"class.std::ios_base::Init" = type { i8 }
%"class.std::basic_istream" = type { i32 (...)**, i64, %"class.std::basic_ios" }
%"class.std::basic_ios" = type { %"class.std::ios_base", %"class.std::basic_ostream"*, i8, i8, %"class.std::basic_streambuf"*, %"class.std::ctype"*, %"class.std::num_put"*, %"class.std::num_get"* }
%"class.std::ios_base" = type { i32 (...)**, i64, i64, i32, i32, i32, %"struct.std::ios_base::_Callback_list"*, %"struct.std::ios_base::_Words", [8 x %"struct.std::ios_base::_Words"], i32, %"struct.std::ios_base::_Words"*, %"class.std::locale" }
%"struct.std::ios_base::_Callback_list" = type { %"struct.std::ios_base::_Callback_list"*, void (i32, %"class.std::ios_base"*, i32)*, i32, i32 }
%"struct.std::ios_base::_Words" = type { i8*, i64 }
%"class.std::locale" = type { %"class.std::locale::_Impl"* }
%"class.std::locale::_Impl" = type { i32, %"class.std::locale::facet"**, i64, %"class.std::locale::facet"**, i8** }
%"class.std::locale::facet" = type <{ i32 (...)**, i32, [4 x i8] }>
%"class.std::basic_ostream" = type { i32 (...)**, %"class.std::basic_ios" }
%"class.std::basic_streambuf" = type { i32 (...)**, i8*, i8*, i8*, i8*, i8*, i8*, %"class.std::locale" }
%"class.std::ctype" = type <{ %"class.std::locale::facet.base", [4 x i8], %struct.__locale_struct*, i8, [7 x i8], i32*, i32*, i16*, i8, [256 x i8], [256 x i8], i8, [6 x i8] }>
%"class.std::locale::facet.base" = type <{ i32 (...)**, i32 }>
%struct.__locale_struct = type { [13 x %struct.__locale_data*], i16*, i32*, i32*, [13 x i8*] }
%struct.__locale_data = type opaque
%"class.std::num_put" = type { %"class.std::locale::facet.base", [4 x i8] }
%"class.std::num_get" = type { %"class.std::locale::facet.base", [4 x i8] }

@_ZStL8__ioinit = internal global %"class.std::ios_base::Init" zeroinitializer, align 1
@__dso_handle = external hidden global i8
@_ZSt3cin = external global %"class.std::basic_istream", align 8
@_ZSt4cout = external global %"class.std::basic_ostream", align 8
@llvm.global_ctors = appending global [1 x { i32, void ()*, i8* }] [{ i32, void ()*, i8* } { i32 65535, void ()* @_GLOBAL__sub_I_944.cpp, i8* null }]

declare void @_ZNSt8ios_base4InitC1Ev(%"class.std::ios_base::Init"* nonnull align 1 dereferenceable(1)) unnamed_addr #0

; Function Attrs: nounwind
declare void @_ZNSt8ios_base4InitD1Ev(%"class.std::ios_base::Init"* nonnull align 1 dereferenceable(1)) unnamed_addr #1

; Function Attrs: nofree nounwind
declare i32 @__cxa_atexit(void (i8*)*, i8*, i8*) local_unnamed_addr #2

; Function Attrs: mustprogress norecurse sspstrong uwtable
define dso_local i32 @main() local_unnamed_addr #3 {
  %1 = alloca i32, align 4
  %2 = alloca [1001 x i32], align 16
  %3 = bitcast i32* %1 to i8*
  call void @llvm.lifetime.start.p0i8(i64 4, i8* nonnull %3) #7
  %4 = bitcast [1001 x i32]* %2 to i8*
  call void @llvm.lifetime.start.p0i8(i64 4004, i8* nonnull %4) #7
  call void @llvm.memset.p0i8.i64(i8* noundef nonnull align 16 dereferenceable(4004) %4, i8 0, i64 4004, i1 false)
  %5 = getelementptr inbounds [1001 x i32], [1001 x i32]* %2, i64 0, i64 0
  store i32 1, i32* %5, align 16
  %6 = call nonnull align 8 dereferenceable(16) %"class.std::basic_istream"* @_ZNSirsERi(%"class.std::basic_istream"* nonnull align 8 dereferenceable(16) @_ZSt3cin, i32* nonnull align 4 dereferenceable(4) %1)
  %7 = load i32, i32* %1, align 4, !tbaa !5
  %8 = icmp sgt i32 %7, 0
  br i1 %8, label %9, label %40

9:                                                ; preds = %0, %37
  %10 = phi i32 [ %34, %37 ], [ 0, %0 ]
  %11 = phi i32 [ %38, %37 ], [ 0, %0 ]
  br label %12

12:                                               ; preds = %9, %33
  %13 = phi i64 [ 0, %9 ], [ %35, %33 ]
  %14 = phi i32 [ %10, %9 ], [ %34, %33 ]
  switch i32 %14, label %15 [
    i32 0, label %18
    i32 1, label %22
  ]

15:                                               ; preds = %12
  %16 = getelementptr inbounds [1001 x i32], [1001 x i32]* %2, i64 0, i64 %13
  %17 = load i32, i32* %16, align 4, !tbaa !5
  br label %27

18:                                               ; preds = %12
  %19 = getelementptr inbounds [1001 x i32], [1001 x i32]* %2, i64 0, i64 %13
  %20 = load i32, i32* %19, align 4, !tbaa !5
  %21 = shl nsw i32 %20, 1
  store i32 %21, i32* %19, align 4, !tbaa !5
  br label %27

22:                                               ; preds = %12
  %23 = getelementptr inbounds [1001 x i32], [1001 x i32]* %2, i64 0, i64 %13
  %24 = load i32, i32* %23, align 4, !tbaa !5
  %25 = shl nsw i32 %24, 1
  %26 = or i32 %25, 1
  store i32 %26, i32* %23, align 4, !tbaa !5
  br label %27

27:                                               ; preds = %15, %18, %22
  %28 = phi i32 [ %17, %15 ], [ %21, %18 ], [ %26, %22 ]
  %29 = icmp sgt i32 %28, 9
  br i1 %29, label %30, label %33

30:                                               ; preds = %27
  %31 = getelementptr inbounds [1001 x i32], [1001 x i32]* %2, i64 0, i64 %13
  %32 = add nsw i32 %28, -10
  store i32 %32, i32* %31, align 4, !tbaa !5
  br label %33

33:                                               ; preds = %27, %30
  %34 = phi i32 [ 1, %30 ], [ 0, %27 ]
  %35 = add nuw nsw i64 %13, 1
  %36 = icmp eq i64 %35, 1001
  br i1 %36, label %37, label %12, !llvm.loop !9

37:                                               ; preds = %33
  %38 = add nuw nsw i32 %11, 1
  %39 = icmp eq i32 %38, %7
  br i1 %39, label %40, label %9, !llvm.loop !11

40:                                               ; preds = %37, %0
  br label %41

41:                                               ; preds = %40, %51
  %42 = phi i64 [ %53, %51 ], [ 1000, %40 ]
  %43 = phi i32 [ %52, %51 ], [ 1, %40 ]
  %44 = getelementptr inbounds [1001 x i32], [1001 x i32]* %2, i64 0, i64 %42
  %45 = load i32, i32* %44, align 4, !tbaa !5
  %46 = icmp eq i32 %45, 0
  %47 = icmp eq i32 %43, 1
  %48 = and i1 %47, %46
  br i1 %48, label %51, label %49

49:                                               ; preds = %41
  %50 = call nonnull align 8 dereferenceable(8) %"class.std::basic_ostream"* @_ZNSolsEi(%"class.std::basic_ostream"* nonnull align 8 dereferenceable(8) @_ZSt4cout, i32 %45)
  br label %51

51:                                               ; preds = %41, %49
  %52 = phi i32 [ 1, %41 ], [ 0, %49 ]
  %53 = add nsw i64 %42, -1
  %54 = icmp eq i64 %42, 0
  br i1 %54, label %55, label %41, !llvm.loop !12

55:                                               ; preds = %51
  call void @llvm.lifetime.end.p0i8(i64 4004, i8* nonnull %4) #7
  call void @llvm.lifetime.end.p0i8(i64 4, i8* nonnull %3) #7
  ret i32 0
}

; Function Attrs: argmemonly mustprogress nofree nosync nounwind willreturn
declare void @llvm.lifetime.start.p0i8(i64 immarg, i8* nocapture) #4

; Function Attrs: argmemonly mustprogress nofree nounwind willreturn writeonly
declare void @llvm.memset.p0i8.i64(i8* nocapture writeonly, i8, i64, i1 immarg) #5

declare nonnull align 8 dereferenceable(16) %"class.std::basic_istream"* @_ZNSirsERi(%"class.std::basic_istream"* nonnull align 8 dereferenceable(16), i32* nonnull align 4 dereferenceable(4)) local_unnamed_addr #0

declare nonnull align 8 dereferenceable(8) %"class.std::basic_ostream"* @_ZNSolsEi(%"class.std::basic_ostream"* nonnull align 8 dereferenceable(8), i32) local_unnamed_addr #0

; Function Attrs: argmemonly mustprogress nofree nosync nounwind willreturn
declare void @llvm.lifetime.end.p0i8(i64 immarg, i8* nocapture) #4

; Function Attrs: sspstrong uwtable
define internal void @_GLOBAL__sub_I_944.cpp() #6 section ".text.startup" {
  tail call void @_ZNSt8ios_base4InitC1Ev(%"class.std::ios_base::Init"* nonnull align 1 dereferenceable(1) @_ZStL8__ioinit)
  %1 = tail call i32 @__cxa_atexit(void (i8*)* bitcast (void (%"class.std::ios_base::Init"*)* @_ZNSt8ios_base4InitD1Ev to void (i8*)*), i8* getelementptr inbounds (%"class.std::ios_base::Init", %"class.std::ios_base::Init"* @_ZStL8__ioinit, i64 0, i32 0), i8* nonnull @__dso_handle) #7
  ret void
}


!llvm.module.flags = !{!0, !1, !2, !3}
!llvm.ident = !{!4}

!0 = !{i32 1, !"wchar_size", i32 4}
!1 = !{i32 7, !"PIC Level", i32 2}
!2 = !{i32 7, !"PIE Level", i32 2}
!3 = !{i32 7, !"uwtable", i32 1}
!4 = !{!"clang version 13.0.0"}
!5 = !{!6, !6, i64 0}
!6 = !{!"int", !7, i64 0}
!7 = !{!"omnipotent char", !8, i64 0}
!8 = !{!"Simple C++ TBAA"}
!9 = distinct !{!9, !10}
!10 = !{!"llvm.loop.mustprogress"}
!11 = distinct !{!11, !10}
!12 = distinct !{!12, !10}
